; Function Attrs: nounwind uwtable
define internal fastcc void @cf_scache_peer_remove_expired(ptr noundef nonnull %0, i64 noundef %1) unnamed_addr #0 {
  %3 = getelementptr inbounds nuw i8, ptr %0, i64 32
  %4 = tail call ptr @Curl_llist_head(ptr noundef nonnull %3) #9
  %.not7 = icmp eq ptr %4, null
  br i1 %.not7, label %._crit_edge, label %.lr.ph

.lr.ph:                                           ; preds = %2, %cf_scache_session_remove.exit
  %.08 = phi ptr [ %6, %cf_scache_session_remove.exit ], [ %4, %2 ]
  %5 = tail call ptr @Curl_node_elem(ptr noundef nonnull %.08) #9
  %6 = tail call ptr @Curl_node_next(ptr noundef nonnull %.08) #9
  %7 = getelementptr i8, ptr %5, i64 16
  %.val = load i64, ptr %7, align 8, !tbaa !17
  %8 = icmp sgt i64 %.val, 0
  %9 = icmp slt i64 %.val, %1
  %spec.select.i = and i1 %8, %9
  br i1 %spec.select.i, label %10, label %cf_scache_session_remove.exit

10:                                               ; preds = %.lr.ph
  %11 = getelementptr inbounds nuw i8, ptr %5, i64 64
  %12 = tail call ptr @Curl_node_llist(ptr noundef nonnull %11) #9
  %.not4.i.i = icmp eq ptr %12, null
  br i1 %.not4.i.i, label %14, label %13

13:                                               ; preds = %10
  tail call void @Curl_node_remove(ptr noundef nonnull %11) #9
  br label %cf_scache_session_remove.exit

14:                                               ; preds = %10
  %15 = load ptr, ptr %5, align 8, !tbaa !19
  %.not.i.i.i.i = icmp eq ptr %15, null
  br i1 %.not.i.i.i.i, label %18, label %16

16:                                               ; preds = %14
  %17 = load ptr, ptr @Curl_cfree, align 8, !tbaa !3
  tail call void %17(ptr noundef nonnull %15) #9
  store ptr null, ptr %5, align 8, !tbaa !19
  br label %18

18:                                               ; preds = %16, %14
  %19 = getelementptr inbounds nuw i8, ptr %5, i64 8
  store i64 0, ptr %19, align 8, !tbaa !20
  %20 = getelementptr inbounds nuw i8, ptr %5, i64 48
  %21 = load ptr, ptr %20, align 8, !tbaa !22
  %.not13.i.i.i.i = icmp eq ptr %21, null
  br i1 %.not13.i.i.i.i, label %cf_ssl_scache_sesssion_ldestroy.exit.i.i, label %22

22:                                               ; preds = %18
  %23 = load ptr, ptr @Curl_cfree, align 8, !tbaa !3
  tail call void %23(ptr noundef nonnull %21) #9
  store ptr null, ptr %20, align 8, !tbaa !22
  br label %cf_ssl_scache_sesssion_ldestroy.exit.i.i

cf_ssl_scache_sesssion_ldestroy.exit.i.i:         ; preds = %22, %18
  %24 = getelementptr inbounds nuw i8, ptr %5, i64 56
  store i64 0, ptr %24, align 8, !tbaa !23
  %25 = getelementptr inbounds nuw i8, ptr %5, i64 24
  store i32 0, ptr %25, align 8, !tbaa !9
  store i64 0, ptr %7, align 8, !tbaa !17
  %26 = load ptr, ptr @Curl_cfree, align 8, !tbaa !3
  %27 = getelementptr inbounds nuw i8, ptr %5, i64 32
  %28 = load ptr, ptr %27, align 8, !tbaa !21
  tail call void %26(ptr noundef %28) #9
  store ptr null, ptr %27, align 8, !tbaa !21
  %29 = load ptr, ptr @Curl_cfree, align 8, !tbaa !3
  tail call void %29(ptr noundef nonnull %5) #9
  br label %cf_scache_session_remove.exit

cf_scache_session_remove.exit:                    ; preds = %cf_ssl_scache_sesssion_ldestroy.exit.i.i, %13, %.lr.ph
  %.not = icmp eq ptr %6, null
  br i1 %.not, label %._crit_edge, label %.lr.ph, !llvm.loop !162

._crit_edge:                                      ; preds = %cf_scache_session_remove.exit, %2
  ret void
}